; Function Attrs: mustprogress nounwind uwtable
define hidden noundef zeroext i1 @_ZN11inputStream4nextEv(ptr noundef nonnull align 8 dereferenceable(320) %0) local_unnamed_addr #0 align 2 {
  %2 = getelementptr inbounds i8, ptr %0, i64 64
  %3 = load i64, ptr %2, align 8
  %4 = getelementptr inbounds i8, ptr %0, i64 56
  %5 = load i64, ptr %4, align 8
  %6 = icmp eq i64 %3, %5
  br i1 %6, label %7, label %_ZNK11inputStream7preloadEv.exit

7:                                                ; preds = %1
  %8 = tail call noundef zeroext i1 @_ZN11inputStream11fill_bufferEv(ptr noundef nonnull align 8 dereferenceable(320) %0)
  %.pre = load i64, ptr %2, align 8
  br label %_ZNK11inputStream7preloadEv.exit

_ZNK11inputStream7preloadEv.exit:                 ; preds = %1, %7
  %9 = phi i64 [ %3, %1 ], [ %.pre, %7 ]
  %10 = getelementptr inbounds i8, ptr %0, i64 48
  %11 = load i64, ptr %10, align 8
  %12 = getelementptr inbounds i8, ptr %0, i64 40
  %13 = load i64, ptr %12, align 8
  %14 = icmp eq i64 %11, %13
  %15 = icmp ugt i64 %9, %13
  %16 = select i1 %14, i1 %15, i1 false
  br i1 %16, label %50, label %17

17:                                               ; preds = %_ZNK11inputStream7preloadEv.exit
  %.not.i = icmp ult i64 %9, %13
  br i1 %.not.i, label %20, label %18

18:                                               ; preds = %17
  %19 = getelementptr inbounds i8, ptr %0, i64 20
  store i8 0, ptr %19, align 4
  tail call void @llvm.memset.p0.i64(ptr noundef nonnull align 8 dereferenceable(32) %12, i8 0, i64 32, i1 false)
  br label %_ZN11inputStream18set_buffer_contentEmm.exit.thread

20:                                               ; preds = %17
  %21 = sub i64 %13, %9
  store i64 %9, ptr %10, align 8
  %22 = getelementptr inbounds i8, ptr %0, i64 24
  %23 = load ptr, ptr %22, align 8
  %24 = getelementptr inbounds i8, ptr %23, i64 %9
  %25 = tail call noundef ptr @memchr(ptr noundef %24, i32 noundef 10, i64 noundef %21) #9
  %26 = icmp eq ptr %25, null
  br i1 %26, label %27, label %29

27:                                               ; preds = %20
  store i64 %13, ptr %4, align 8
  store i64 %13, ptr %2, align 8
  %28 = getelementptr inbounds i8, ptr %0, i64 20
  store i8 0, ptr %28, align 4
  br label %_ZN11inputStream18set_buffer_contentEmm.exit.thread

29:                                               ; preds = %20
  store i8 0, ptr %25, align 1
  %30 = getelementptr inbounds i8, ptr %0, i64 72
  %31 = load i64, ptr %30, align 8
  %32 = add i64 %31, 1
  store i64 %32, ptr %30, align 8
  %33 = load ptr, ptr %22, align 8
  %34 = ptrtoint ptr %25 to i64
  %35 = ptrtoint ptr %33 to i64
  %36 = sub i64 %34, %35
  %37 = add i64 %36, 1
  store i64 %37, ptr %2, align 8
  %38 = icmp ugt i64 %36, %9
  br i1 %38, label %39, label %_ZN11inputStream18set_buffer_contentEmm.exit.thread4

39:                                               ; preds = %29
  %40 = getelementptr inbounds i8, ptr %25, i64 -1
  %41 = load i8, ptr %40, align 1
  %42 = icmp eq i8 %41, 13
  br i1 %42, label %_ZN11inputStream18set_buffer_contentEmm.exit, label %_ZN11inputStream18set_buffer_contentEmm.exit.thread4

_ZN11inputStream18set_buffer_contentEmm.exit.thread4: ; preds = %39, %29
  store i64 %36, ptr %4, align 8
  %43 = getelementptr inbounds i8, ptr %0, i64 20
  store i8 1, ptr %43, align 4
  br label %50

_ZN11inputStream18set_buffer_contentEmm.exit:     ; preds = %39
  store i8 0, ptr %40, align 1
  %44 = add i64 %36, -1
  %.pre.i = load i64, ptr %2, align 8
  store i64 %44, ptr %4, align 8
  %45 = sub i64 %.pre.i, %44
  %46 = trunc i64 %45 to i8
  %47 = getelementptr inbounds i8, ptr %0, i64 20
  store i8 %46, ptr %47, align 4
  %48 = icmp eq i64 %.pre.i, %44
  br i1 %48, label %_ZN11inputStream18set_buffer_contentEmm.exit.thread, label %50

_ZN11inputStream18set_buffer_contentEmm.exit.thread: ; preds = %27, %18, %_ZN11inputStream18set_buffer_contentEmm.exit
  %49 = tail call noundef zeroext i1 @_ZN11inputStream11fill_bufferEv(ptr noundef nonnull align 8 dereferenceable(320) %0)
  br label %50

50:                                               ; preds = %_ZN11inputStream18set_buffer_contentEmm.exit.thread4, %_ZN11inputStream18set_buffer_contentEmm.exit, %_ZNK11inputStream7preloadEv.exit, %_ZN11inputStream18set_buffer_contentEmm.exit.thread
  %.0 = phi i1 [ %49, %_ZN11inputStream18set_buffer_contentEmm.exit.thread ], [ false, %_ZNK11inputStream7preloadEv.exit ], [ true, %_ZN11inputStream18set_buffer_contentEmm.exit ], [ true, %_ZN11inputStream18set_buffer_contentEmm.exit.thread4 ]
  ret i1 %.0
}